Certificate:
    Data:
        Version: 3 (0x2)
        Serial Number:
            31:cc:38:ce:9e:4f:8f:bc:7c:0f:64:48:f1:ac:62:10:b2:d5:67:9c
        Signature Algorithm: sha256WithRSAEncryption
        Issuer: C = CZ, ST = Prague, L = Prague, O = Raspberry Pi, CN = malina4
        Validity
            Not Before: Oct 10 18:14:15 2021 GMT
            Not After : Oct  8 18:14:15 2031 GMT
        Subject: C = CZ, ST = Prague, L = Prague, O = Raspberry Pi, CN = malina4
        Subject Public Key Info:
            Public Key Algorithm: rsaEncryption
                RSA Public-Key: (2048 bit)
                Modulus:
                    00:e0:0a:a5:ed:c7:a3:4a:5d:e7:a9:04:95:dd:85:
                    c2:28:42:7a:72:c5:4d:7e:71:80:ee:56:f5:ba:25:
                    c6:d5:a3:af:fa:99:2a:4b:61:c9:46:83:e3:3f:a1:
                    81:6b:22:60:9e:cc:ae:ff:da:36:46:87:8f:29:7e:
                    9e:e9:da:3f:68:cd:a1:f1:71:1f:cb:c9:56:a2:72:
                    d7:dc:2b:0a:59:f1:0b:3f:18:10:70:88:54:5e:8c:
                    e9:bd:7b:c9:91:a1:dd:3e:6c:76:fc:79:93:25:a7:
                    b4:9c:91:d0:08:0d:ec:66:3c:26:c3:c9:ba:fd:02:
                    3c:67:63:03:12:f2:7b:26:e3:35:7d:28:f1:9e:c7:
                    40:2e:e0:ed:97:ae:b9:d9:0a:7a:7d:f6:30:a1:6d:
                    42:9a:13:e2:b8:f1:63:9f:5a:ee:89:e8:98:12:4c:
                    79:63:ee:dc:24:d3:4f:10:5b:2c:5d:99:73:a3:c4:
                    94:d3:94:9e:82:88:3f:e5:89:2b:4f:5c:b9:69:45:
                    bf:74:88:e1:d9:fa:ad:f5:c4:84:ce:70:42:0b:73:
                    6b:6b:6c:19:40:c5:de:d9:38:60:ef:e7:ba:45:4b:
                    52:0d:bc:c6:b5:d9:0d:80:80:48:68:ff:63:56:d3:
                    0f:0c:80:6e:e3:6f:b7:0c:f8:34:fe:61:11:4c:cb:
                    6e:1f
                Exponent: 65537 (0x10001)
        X509v3 extensions:
            X509v3 Subject Key Identifier: 
                4E:35:8B:F4:98:00:3E:28:AB:16:6F:36:1E:31:8E:48:F2:3E:CB:D1
            X509v3 Authority Key Identifier: 
                keyid:4E:35:8B:F4:98:00:3E:28:AB:16:6F:36:1E:31:8E:48:F2:3E:CB:D1

            X509v3 Basic Constraints: critical
                CA:TRUE
    Signature Algorithm: sha256WithRSAEncryption
         61:ad:ed:33:9e:c7:86:43:bc:71:13:8f:d9:54:13:9b:f7:97:
         41:ae:fa:e3:00:49:60:33:2e:bf:e9:7a:e9:68:09:03:9c:f4:
         6d:4c:4b:84:29:1c:ec:46:5b:69:2d:c4:63:ae:7d:db:1a:9f:
         7f:b6:23:f7:01:90:ab:99:94:0e:bb:1e:f2:2f:6d:f1:8b:35:
         e3:47:94:5c:f2:76:b0:05:01:9d:c2:53:b5:a6:90:28:94:fb:
         81:87:ae:f6:85:b5:a0:21:0d:a6:45:41:39:26:27:44:ce:31:
         61:6b:c3:4d:ca:da:70:4b:85:31:d3:23:62:52:fe:32:3e:83:
         64:8f:4c:dc:ea:4f:15:0a:50:64:c8:a2:2c:7c:76:67:2b:29:
         1d:80:68:35:40:9b:25:69:64:7a:a6:7e:31:be:71:8a:e0:35:
         4f:9a:ec:05:29:43:03:9c:a9:6c:93:b3:06:b3:9e:31:10:ab:
         1c:7a:81:67:8b:87:62:3b:2a:16:18:92:89:02:58:87:d5:57:
         75:7e:1d:7a:e2:df:09:75:dd:88:74:07:24:21:c7:5a:96:55:
         2a:84:68:29:63:51:35:0b:bd:7b:4e:cd:1d:7d:f0:f1:a8:05:
         f4:c2:14:d5:b5:9c:98:24:35:bd:66:01:65:c4:e4:96:3f:ac:
         43:33:b2:e1
-----BEGIN CERTIFICATE-----
MIIDkTCCAnmgAwIBAgIUMcw4zp5Pj7x8D2RI8axiELLVZ5wwDQYJKoZIhvcNAQEL
BQAwWDELMAkGA1UEBhMCQ1oxDzANBgNVBAgMBlByYWd1ZTEPMA0GA1UEBwwGUHJh
Z3VlMRUwEwYDVQQKDAxSYXNwYmVycnkgUGkxEDAOBgNVBAMMB21hbGluYTQwHhcN
MjExMDEwMTgxNDE1WhcNMzExMDA4MTgxNDE1WjBYMQswCQYDVQQGEwJDWjEPMA0G
A1UECAwGUHJhZ3VlMQ8wDQYDVQQHDAZQcmFndWUxFTATBgNVBAoMDFJhc3BiZXJy
eSBQaTEQMA4GA1UEAwwHbWFsaW5hNDCCASIwDQYJKoZIhvcNAQEBBQADggEPADCC
AQoCggEBAOAKpe3Ho0pd56kEld2FwihCenLFTX5xgO5W9bolxtWjr/qZKkthyUaD
4z+hgWsiYJ7Mrv/aNkaHjyl+nunaP2jNofFxH8vJVqJy19wrClnxCz8YEHCIVF6M
6b17yZGh3T5sdvx5kyWntJyR0AgN7GY8JsPJuv0CPGdjAxLyeybjNX0o8Z7HQC7g
7ZeuudkKen32MKFtQpoT4rjxY59a7onomBJMeWPu3CTTTxBbLF2Zc6PElNOUnoKI
P+WJK09cuWlFv3SI4dn6rfXEhM5wQgtza2tsGUDF3tk4YO/nukVLUg28xrXZDYCA
SGj/Y1bTDwyAbuNvtwz4NP5hEUzLbh8CAwEAAaNTMFEwHQYDVR0OBBYEFE41i/SY
AD4oqxZvNh4xjkjyPsvRMB8GA1UdIwQYMBaAFE41i/SYAD4oqxZvNh4xjkjyPsvR
MA8GA1UdEwEB/wQFMAMBAf8wDQYJKoZIhvcNAQELBQADggEBAGGt7TOex4ZDvHET
j9lUE5v3l0Gu+uMASWAzLr/peuloCQOc9G1MS4QpHOxGW2ktxGOufdsan3+2I/cB
kKuZlA67HvIvbfGLNeNHlFzydrAFAZ3CU7WmkCiU+4GHrvaFtaAhDaZFQTkmJ0TO
MWFrw03K2nBLhTHTI2JS/jI+g2SPTNzqTxUKUGTIoix8dmcrKR2AaDVAmyVpZHqm
fjG+cYrgNU+a7AUpQwOcqWyTswaznjEQqxx6gWeLh2I7KhYYkokCWIfVV3V+HXri
3wl13Yh0ByQhx1qWVSqEaCljUTULvXtOzR198PGoBfTCFNW1nJgkNb1mAWXE5JY/
rEMzsuE=
-----END CERTIFICATE-----
